target datalayout = "e-m:e-p270:32:32-p271:32:32-p272:64:64-i64:64-i128:128-f80:128-n8:16:32:64-S128"
target triple = "x86_64-pc-linux-gnu"

%struct.Nwk_Grf_t_ = type { i32, i32, i32, ptr, ptr, i32, i32, ptr, ptr, [17 x i32], [17 x i32], ptr, ptr, ptr, i32, i32 }
%struct.Nwk_Vrt_t_ = type { i32, i32, i32, i32, [0 x i32] }

@.str.1 = private unnamed_addr constant [4 x i8] c"%d \00", align 1
@.str.2 = private unnamed_addr constant [2 x i8] c"\0A\00", align 1

; Function Attrs: nounwind uwtable
define i32 @Nwk_ManGraphListLength(ptr noundef %0, i32 noundef %1) #0 {
  %3 = alloca ptr, align 8
  %4 = alloca i32, align 4
  %5 = alloca ptr, align 8
  %6 = alloca i32, align 4
  %7 = alloca i32, align 4
  store ptr %0, ptr %3, align 8, !tbaa !7
  store i32 %1, ptr %4, align 4, !tbaa !3
  call void @llvm.lifetime.start.p0(i64 8, ptr %5) #11
  call void @llvm.lifetime.start.p0(i64 4, ptr %6) #11
  store i32 0, ptr %6, align 4, !tbaa !3
  call void @llvm.lifetime.start.p0(i64 4, ptr %7) #11
  store i32 0, ptr %7, align 4, !tbaa !3
  %8 = load i32, ptr %4, align 4, !tbaa !3
  %9 = icmp ne i32 %8, 0
  br i1 %9, label %10, label %18

10:                                               ; preds = %2
  %11 = load ptr, ptr %3, align 8, !tbaa !7
  %12 = getelementptr inbounds nuw %struct.Nwk_Grf_t_, ptr %11, i32 0, i32 7
  %13 = load ptr, ptr %12, align 8, !tbaa !31
  %14 = load i32, ptr %4, align 4, !tbaa !3
  %15 = sext i32 %14 to i64
  %16 = getelementptr inbounds ptr, ptr %13, i64 %15
  %17 = load ptr, ptr %16, align 8, !tbaa !52
  br label %19

18:                                               ; preds = %2
  br label %19

19:                                               ; preds = %18, %10
  %20 = phi ptr [ %17, %10 ], [ null, %18 ]
  store ptr %20, ptr %5, align 8, !tbaa !52
  br label %21

21:                                               ; preds = %63, %19
  %22 = load ptr, ptr %5, align 8, !tbaa !52
  %23 = icmp ne ptr %22, null
  br i1 %23, label %24, label %65

24:                                               ; preds = %21
  %25 = load i32, ptr %6, align 4, !tbaa !3
  %26 = icmp ne i32 %25, 0
  br i1 %26, label %27, label %44

27:                                               ; preds = %24
  %28 = load i32, ptr %7, align 4, !tbaa !3
  %29 = icmp slt i32 %28, 20
  br i1 %29, label %30, label %44

30:                                               ; preds = %27
  %31 = load ptr, ptr %3, align 8, !tbaa !7
  %32 = getelementptr inbounds nuw %struct.Nwk_Grf_t_, ptr %31, i32 0, i32 7
  %33 = load ptr, ptr %32, align 8, !tbaa !31
  %34 = load ptr, ptr %5, align 8, !tbaa !52
  %35 = getelementptr inbounds nuw %struct.Nwk_Vrt_t_, ptr %34, i32 0, i32 4
  %36 = getelementptr inbounds [0 x i32], ptr %35, i64 0, i64 0
  %37 = load i32, ptr %36, align 4, !tbaa !3
  %38 = sext i32 %37 to i64
  %39 = getelementptr inbounds ptr, ptr %33, i64 %38
  %40 = load ptr, ptr %39, align 8, !tbaa !52
  %41 = getelementptr inbounds nuw %struct.Nwk_Vrt_t_, ptr %40, i32 0, i32 3
  %42 = load i32, ptr %41, align 4, !tbaa !57
  %43 = call i32 (ptr, ...) @printf(ptr noundef @.str.1, i32 noundef %42)
  br label %44

44:                                               ; preds = %30, %27, %24
  %45 = load i32, ptr %7, align 4, !tbaa !3
  %46 = add nsw i32 %45, 1
  store i32 %46, ptr %7, align 4, !tbaa !3
  br label %47

47:                                               ; preds = %44
  %48 = load ptr, ptr %5, align 8, !tbaa !52
  %49 = getelementptr inbounds nuw %struct.Nwk_Vrt_t_, ptr %48, i32 0, i32 2
  %50 = load i32, ptr %49, align 4, !tbaa !72
  %51 = icmp ne i32 %50, 0
  br i1 %51, label %52, label %62

52:                                               ; preds = %47
  %53 = load ptr, ptr %3, align 8, !tbaa !7
  %54 = getelementptr inbounds nuw %struct.Nwk_Grf_t_, ptr %53, i32 0, i32 7
  %55 = load ptr, ptr %54, align 8, !tbaa !31
  %56 = load ptr, ptr %5, align 8, !tbaa !52
  %57 = getelementptr inbounds nuw %struct.Nwk_Vrt_t_, ptr %56, i32 0, i32 2
  %58 = load i32, ptr %57, align 4, !tbaa !72
  %59 = sext i32 %58 to i64
  %60 = getelementptr inbounds ptr, ptr %55, i64 %59
  %61 = load ptr, ptr %60, align 8, !tbaa !52
  br label %63

62:                                               ; preds = %47
  br label %63

63:                                               ; preds = %62, %52
  %64 = phi ptr [ %61, %52 ], [ null, %62 ]
  store ptr %64, ptr %5, align 8, !tbaa !52
  br label %21, !llvm.loop !73

65:                                               ; preds = %21
  %66 = load i32, ptr %6, align 4, !tbaa !3
  %67 = icmp ne i32 %66, 0
  br i1 %67, label %68, label %70

68:                                               ; preds = %65
  %69 = call i32 (ptr, ...) @printf(ptr noundef @.str.2)
  br label %70

70:                                               ; preds = %68, %65
  %71 = load i32, ptr %7, align 4, !tbaa !3
  call void @llvm.lifetime.end.p0(i64 4, ptr %7) #11
  call void @llvm.lifetime.end.p0(i64 4, ptr %6) #11
  call void @llvm.lifetime.end.p0(i64 8, ptr %5) #11
  ret i32 %71
}