; Function Attrs: nofree norecurse nosync nounwind memory(read, inaccessiblemem: none) uwtable
define i32 @Nwk_ManGraphListLength(ptr noundef readonly captures(none) %0, i32 noundef %1) local_unnamed_addr #11 {
  %.not = icmp eq i32 %1, 0
  br i1 %.not, label %._crit_edge, label %3

3:                                                ; preds = %2
  %4 = getelementptr inbounds nuw i8, ptr %0, i64 40
  %5 = load ptr, ptr %4, align 8, !tbaa !27
  %6 = sext i32 %1 to i64
  %7 = getelementptr inbounds ptr, ptr %5, i64 %6
  %8 = load ptr, ptr %7, align 8, !tbaa !48
  %.not1719 = icmp eq ptr %8, null
  br i1 %.not1719, label %._crit_edge, label %.lr.ph

.lr.ph:                                           ; preds = %3
  %9 = getelementptr inbounds nuw i8, ptr %0, i64 40
  br label %10

10:                                               ; preds = %.lr.ph, %14
  %.021 = phi i32 [ 0, %.lr.ph ], [ %11, %14 ]
  %.01420 = phi ptr [ %8, %.lr.ph ], [ %18, %14 ]
  %11 = add nuw nsw i32 %.021, 1
  %12 = getelementptr inbounds nuw i8, ptr %.01420, i64 8
  %13 = load i32, ptr %12, align 4, !tbaa !57
  %.not18 = icmp eq i32 %13, 0
  br i1 %.not18, label %._crit_edge, label %14

14:                                               ; preds = %10
  %15 = load ptr, ptr %9, align 8, !tbaa !27
  %16 = sext i32 %13 to i64
  %17 = getelementptr inbounds ptr, ptr %15, i64 %16
  %18 = load ptr, ptr %17, align 8, !tbaa !48
  %.not17 = icmp eq ptr %18, null
  br i1 %.not17, label %._crit_edge, label %10, !llvm.loop !67

._crit_edge:                                      ; preds = %10, %14, %2, %3
  %.0.lcssa = phi i32 [ 0, %3 ], [ 0, %2 ], [ %11, %14 ], [ %11, %10 ]
  ret i32 %.0.lcssa
}